target datalayout = "e-m:e-p270:32:32-p271:32:32-p272:64:64-i64:64-i128:128-f80:128-n8:16:32:64-S128"
target triple = "x86_64-pc-linux-gnu"

@.str = private unnamed_addr constant [1 x i8] zeroinitializer, align 1
@.str.180 = private unnamed_addr constant [6 x i8] c"%s %s\00", align 1
@.str.181 = private unnamed_addr constant [2 x i8] c",\00", align 1

; Function Attrs: mustprogress nounwind uwtable
define hidden void @_ZN6LogTag9list_tagsEP12outputStream(ptr noundef %0) #1 align 2 {
  %2 = alloca ptr, align 8
  %3 = alloca i64, align 8
  store ptr %0, ptr %2, align 8
  store i64 1, ptr %3, align 8
  br label %4

4:                                                ; preds = %17, %1
  %5 = load i64, ptr %3, align 8
  %6 = icmp ult i64 %5, 177
  br i1 %6, label %7, label %20

7:                                                ; preds = %4
  %8 = load ptr, ptr %2, align 8
  %9 = load i64, ptr %3, align 8
  %10 = icmp eq i64 %9, 1
  %11 = select i1 %10, ptr @.str, ptr @.str.181
  %12 = load i64, ptr %3, align 8
  %13 = trunc i64 %12 to i32
  %14 = zext i32 %13 to i64
  %15 = getelementptr inbounds [177 x ptr], ptr @_ZN6LogTag5_nameE, i64 0, i64 %14
  %16 = load ptr, ptr %15, align 8
  call void (ptr, ptr, ...) @_ZN12outputStream5printEPKcz(ptr noundef nonnull align 8 dereferenceable(56) %8, ptr noundef @.str.180, ptr noundef %11, ptr noundef %16)
  br label %17

17:                                               ; preds = %7
  %18 = load i64, ptr %3, align 8
  %19 = add i64 %18, 1
  store i64 %19, ptr %3, align 8
  br label %4, !llvm.loop !9

20:                                               ; preds = %4
  %21 = load ptr, ptr %2, align 8
  call void @_ZN12outputStream2crEv(ptr noundef nonnull align 8 dereferenceable(56) %21)
  ret void
}