; Function Attrs: mustprogress nounwind uwtable
define hidden void @_ZN6LogTag9list_tagsEP12outputStream(ptr noundef %0) local_unnamed_addr #2 align 2 {
  br label %2

2:                                                ; preds = %1, %2
  %.05 = phi i64 [ 1, %1 ], [ %7, %2 ]
  %3 = icmp eq i64 %.05, 1
  %4 = select i1 %3, ptr @.str, ptr @.str.181
  %5 = getelementptr inbounds [177 x ptr], ptr @_ZN6LogTag5_nameE, i64 0, i64 %.05
  %6 = load ptr, ptr %5, align 8
  tail call void (ptr, ptr, ...) @_ZN12outputStream5printEPKcz(ptr noundef nonnull align 8 dereferenceable(56) %0, ptr noundef nonnull @.str.180, ptr noundef nonnull %4, ptr noundef %6) #6
  %7 = add nuw nsw i64 %.05, 1
  %exitcond.not = icmp eq i64 %7, 177
  br i1 %exitcond.not, label %8, label %2, !llvm.loop !9

8:                                                ; preds = %2
  tail call void @_ZN12outputStream2crEv(ptr noundef nonnull align 8 dereferenceable(56) %0) #6
  ret void
}